#include <math.h>
#include <stdio.h>
#include <stdlib.h>
#include <string.h>

int main()
{	int i,j,l,t;
	char str[16],t_max,substr[4];
	while(scanf("%s%s",&str,&substr)!=EOF)
	{
		l=strlen(str);
		t_max=-1;
		for (i=0;i<l;i++)
			if (t_max<str[i])
			{
				t=i;
				t_max=str[i];
			}
		for (i=0;i<=t;i++)
			printf("%c",str[i]);
		printf("%s",substr);
		for (;i<l;i++)
			printf("%c",str[i]);
		printf("\n");
	}
	return 0;
}
