; ModuleID = '20/966.c'
source_filename = "20/966.c"
target datalayout = "e-m:e-p270:32:32-p271:32:32-p272:64:64-i64:64-f80:128-n8:16:32:64-S128"
target triple = "x86_64-pc-linux-gnu"

@.str = private unnamed_addr constant [5 x i8] c"%s%s\00", align 1
@.str.1 = private unnamed_addr constant [3 x i8] c"%c\00", align 1
@.str.2 = private unnamed_addr constant [3 x i8] c"%s\00", align 1
@.str.3 = private unnamed_addr constant [2 x i8] c"\0A\00", align 1

; Function Attrs: noinline nounwind uwtable
define dso_local i32 @main() #0 {
  %1 = alloca i32, align 4
  %2 = alloca i32, align 4
  %3 = alloca i32, align 4
  %4 = alloca i32, align 4
  %5 = alloca i32, align 4
  %6 = alloca [16 x i8], align 16
  %7 = alloca i8, align 1
  %8 = alloca [4 x i8], align 1
  store i32 0, i32* %1, align 4
  br label %9

9:                                                ; preds = %71, %0
  %10 = call i32 (i8*, ...) @__isoc99_scanf(i8* getelementptr inbounds ([5 x i8], [5 x i8]* @.str, i64 0, i64 0), [16 x i8]* %6, [4 x i8]* %8)
  %11 = icmp ne i32 %10, -1
  br i1 %11, label %12, label %73

12:                                               ; preds = %9
  %13 = getelementptr inbounds [16 x i8], [16 x i8]* %6, i64 0, i64 0
  %14 = call i64 @strlen(i8* %13) #3
  %15 = trunc i64 %14 to i32
  store i32 %15, i32* %4, align 4
  store i8 -1, i8* %7, align 1
  store i32 0, i32* %2, align 4
  br label %16

16:                                               ; preds = %36, %12
  %17 = load i32, i32* %2, align 4
  %18 = load i32, i32* %4, align 4
  %19 = icmp slt i32 %17, %18
  br i1 %19, label %20, label %39

20:                                               ; preds = %16
  %21 = load i8, i8* %7, align 1
  %22 = sext i8 %21 to i32
  %23 = load i32, i32* %2, align 4
  %24 = sext i32 %23 to i64
  %25 = getelementptr inbounds [16 x i8], [16 x i8]* %6, i64 0, i64 %24
  %26 = load i8, i8* %25, align 1
  %27 = sext i8 %26 to i32
  %28 = icmp slt i32 %22, %27
  br i1 %28, label %29, label %35

29:                                               ; preds = %20
  %30 = load i32, i32* %2, align 4
  store i32 %30, i32* %5, align 4
  %31 = load i32, i32* %2, align 4
  %32 = sext i32 %31 to i64
  %33 = getelementptr inbounds [16 x i8], [16 x i8]* %6, i64 0, i64 %32
  %34 = load i8, i8* %33, align 1
  store i8 %34, i8* %7, align 1
  br label %35

35:                                               ; preds = %29, %20
  br label %36

36:                                               ; preds = %35
  %37 = load i32, i32* %2, align 4
  %38 = add nsw i32 %37, 1
  store i32 %38, i32* %2, align 4
  br label %16

39:                                               ; preds = %16
  store i32 0, i32* %2, align 4
  br label %40

40:                                               ; preds = %51, %39
  %41 = load i32, i32* %2, align 4
  %42 = load i32, i32* %5, align 4
  %43 = icmp sle i32 %41, %42
  br i1 %43, label %44, label %54

44:                                               ; preds = %40
  %45 = load i32, i32* %2, align 4
  %46 = sext i32 %45 to i64
  %47 = getelementptr inbounds [16 x i8], [16 x i8]* %6, i64 0, i64 %46
  %48 = load i8, i8* %47, align 1
  %49 = sext i8 %48 to i32
  %50 = call i32 (i8*, ...) @printf(i8* getelementptr inbounds ([3 x i8], [3 x i8]* @.str.1, i64 0, i64 0), i32 %49)
  br label %51

51:                                               ; preds = %44
  %52 = load i32, i32* %2, align 4
  %53 = add nsw i32 %52, 1
  store i32 %53, i32* %2, align 4
  br label %40

54:                                               ; preds = %40
  %55 = getelementptr inbounds [4 x i8], [4 x i8]* %8, i64 0, i64 0
  %56 = call i32 (i8*, ...) @printf(i8* getelementptr inbounds ([3 x i8], [3 x i8]* @.str.2, i64 0, i64 0), i8* %55)
  br label %57

57:                                               ; preds = %68, %54
  %58 = load i32, i32* %2, align 4
  %59 = load i32, i32* %4, align 4
  %60 = icmp slt i32 %58, %59
  br i1 %60, label %61, label %71

61:                                               ; preds = %57
  %62 = load i32, i32* %2, align 4
  %63 = sext i32 %62 to i64
  %64 = getelementptr inbounds [16 x i8], [16 x i8]* %6, i64 0, i64 %63
  %65 = load i8, i8* %64, align 1
  %66 = sext i8 %65 to i32
  %67 = call i32 (i8*, ...) @printf(i8* getelementptr inbounds ([3 x i8], [3 x i8]* @.str.1, i64 0, i64 0), i32 %66)
  br label %68

68:                                               ; preds = %61
  %69 = load i32, i32* %2, align 4
  %70 = add nsw i32 %69, 1
  store i32 %70, i32* %2, align 4
  br label %57

71:                                               ; preds = %57
  %72 = call i32 (i8*, ...) @printf(i8* getelementptr inbounds ([2 x i8], [2 x i8]* @.str.3, i64 0, i64 0))
  br label %9

73:                                               ; preds = %9
  ret i32 0
}

declare dso_local i32 @__isoc99_scanf(i8*, ...) #1

; Function Attrs: nounwind readonly
declare dso_local i64 @strlen(i8*) #2

declare dso_local i32 @printf(i8*, ...) #1


!llvm.module.flags = !{!0}
!llvm.ident = !{!1}

!0 = !{i32 1, !"wchar_size", i32 4}
!1 = !{!"clang version 10.0.0-4ubuntu1 "}
